; Function Attrs: mustprogress noreturn uwtable
define void @_Z16gmx_fatal_mpi_vaiRKNSt10filesystem7__cxx114pathEibbPKcP13__va_list_tag(i32 %0, ptr noundef nonnull align 8 dereferenceable(40) %1, i32 noundef %2, i1 noundef zeroext %3, i1 noundef zeroext %4, ptr noundef %5, ptr noundef %6) local_unnamed_addr #9 personality ptr @__gxx_personality_v0 {
  %8 = alloca %"class.std::__cxx11::basic_string", align 8
  br i1 %3, label %9, label %29

9:                                                ; preds = %7
  call void @llvm.lifetime.start.p0(i64 32, ptr nonnull %8) #17
  call void @_ZN3gmx13formatStringVB5cxx11EPKcP13__va_list_tag(ptr dead_on_unwind nonnull writable sret(%"class.std::__cxx11::basic_string") align 8 %8, ptr noundef %5, ptr noundef %6)
  invoke fastcc void @_ZL18call_error_handlerPKcRKNSt10filesystem7__cxx114pathEiRKNSt7__cxx1112basic_stringIcSt11char_traitsIcESaIcEEE(ptr noundef nonnull @.str.3, ptr noundef nonnull align 8 dereferenceable(40) %1, i32 noundef %2, ptr noundef nonnull align 8 dereferenceable(32) %8)
          to label %10 unwind label %19

10:                                               ; preds = %9
  %11 = load ptr, ptr %8, align 8, !tbaa !18
  %12 = getelementptr inbounds nuw i8, ptr %8, i64 16
  %13 = icmp eq ptr %11, %12
  br i1 %13, label %_ZNKSt7__cxx1112basic_stringIcSt11char_traitsIcESaIcEE11_M_is_localEv.exit.thread.i.i, label %_ZNKSt7__cxx1112basic_stringIcSt11char_traitsIcESaIcEE11_M_is_localEv.exit.i.i

_ZNKSt7__cxx1112basic_stringIcSt11char_traitsIcESaIcEE11_M_is_localEv.exit.thread.i.i: ; preds = %10
  %14 = getelementptr inbounds nuw i8, ptr %8, i64 8
  %15 = load i64, ptr %14, align 8, !tbaa !24
  %16 = icmp ult i64 %15, 16
  call void @llvm.assume(i1 %16)
  br label %_ZNSt7__cxx1112basic_stringIcSt11char_traitsIcESaIcEED2Ev.exit

_ZNKSt7__cxx1112basic_stringIcSt11char_traitsIcESaIcEE11_M_is_localEv.exit.i.i: ; preds = %10
  %17 = load i64, ptr %12, align 8, !tbaa !27
  %18 = add i64 %17, 1
  call void @_ZdlPvm(ptr noundef %11, i64 noundef %18) #19
  br label %_ZNSt7__cxx1112basic_stringIcSt11char_traitsIcESaIcEED2Ev.exit

_ZNSt7__cxx1112basic_stringIcSt11char_traitsIcESaIcEED2Ev.exit: ; preds = %_ZNKSt7__cxx1112basic_stringIcSt11char_traitsIcESaIcEE11_M_is_localEv.exit.thread.i.i, %_ZNKSt7__cxx1112basic_stringIcSt11char_traitsIcESaIcEE11_M_is_localEv.exit.i.i
  call void @llvm.lifetime.end.p0(i64 32, ptr nonnull %8) #17
  br label %29

19:                                               ; preds = %9
  %20 = landingpad { ptr, i32 }
          cleanup
  %21 = load ptr, ptr %8, align 8, !tbaa !18
  %22 = getelementptr inbounds nuw i8, ptr %8, i64 16
  %23 = icmp eq ptr %21, %22
  br i1 %23, label %_ZNKSt7__cxx1112basic_stringIcSt11char_traitsIcESaIcEE11_M_is_localEv.exit.thread.i.i10, label %_ZNKSt7__cxx1112basic_stringIcSt11char_traitsIcESaIcEE11_M_is_localEv.exit.i.i9

_ZNKSt7__cxx1112basic_stringIcSt11char_traitsIcESaIcEE11_M_is_localEv.exit.thread.i.i10: ; preds = %19
  %24 = getelementptr inbounds nuw i8, ptr %8, i64 8
  %25 = load i64, ptr %24, align 8, !tbaa !24
  %26 = icmp ult i64 %25, 16
  call void @llvm.assume(i1 %26)
  br label %_ZNSt7__cxx1112basic_stringIcSt11char_traitsIcESaIcEED2Ev.exit11

_ZNKSt7__cxx1112basic_stringIcSt11char_traitsIcESaIcEE11_M_is_localEv.exit.i.i9: ; preds = %19
  %27 = load i64, ptr %22, align 8, !tbaa !27
  %28 = add i64 %27, 1
  call void @_ZdlPvm(ptr noundef %21, i64 noundef %28) #19
  br label %_ZNSt7__cxx1112basic_stringIcSt11char_traitsIcESaIcEED2Ev.exit11

_ZNSt7__cxx1112basic_stringIcSt11char_traitsIcESaIcEED2Ev.exit11: ; preds = %_ZNKSt7__cxx1112basic_stringIcSt11char_traitsIcESaIcEE11_M_is_localEv.exit.thread.i.i10, %_ZNKSt7__cxx1112basic_stringIcSt11char_traitsIcESaIcEE11_M_is_localEv.exit.i.i9
  call void @llvm.lifetime.end.p0(i64 32, ptr nonnull %8) #17
  resume { ptr, i32 } %20

29:                                               ; preds = %_ZNSt7__cxx1112basic_stringIcSt11char_traitsIcESaIcEED2Ev.exit, %7
  %30 = phi i32 [ 1, %_ZNSt7__cxx1112basic_stringIcSt11char_traitsIcESaIcEED2Ev.exit ], [ 2, %7 ]
  %spec.select = select i1 %4, i32 0, i32 %30
  call void @_Z23gmx_exit_on_fatal_error8ExitTypei(i32 noundef %spec.select, i32 noundef 1) #18
  unreachable
}